---
triple:          'arm64-apple-darwin'
binary-path:     '/Users/maxallywolftheresias/cpePrep/competitveProgramming/p482'
relocations:
  - { offsetInCU: 0x6680, offset: 0x6680, size: 0x8, addend: 0x0, symName: __ZNSt3__14endlB8ue170006IcNS_11char_traitsIcEEEERNS_13basic_ostreamIT_T0_EES7_, symObjAddr: 0x3EC, symBinAddr: 0x100001B7C, symSize: 0x58 }
  - { offsetInCU: 0x66C0, offset: 0x66C0, size: 0x8, addend: 0x0, symName: __ZNSt3__122__make_exception_guardB8ue170006INS_6vectorIiNS_9allocatorIiEEE16__destroy_vectorEEENS_28__exception_guard_exceptionsIT_EES7_, symObjAddr: 0x5C0, symBinAddr: 0x100001D50, symSize: 0x40 }
  - { offsetInCU: 0x66F5, offset: 0x66F5, size: 0x8, addend: 0x0, symName: __ZNSt3__119__allocate_at_leastB8ue170006INS_9allocatorIiEEEENS_19__allocation_resultINS_16allocator_traitsIT_E7pointerEEERS5_m, symObjAddr: 0x9C8, symBinAddr: 0x100002158, symSize: 0x40 }
  - { offsetInCU: 0x6738, offset: 0x6738, size: 0x8, addend: 0x0, symName: __ZNSt3__13minB8ue170006ImEERKT_S3_S3_, symObjAddr: 0xB04, symBinAddr: 0x100002294, symSize: 0x2C }
  - { offsetInCU: 0x697C, offset: 0x697C, size: 0x8, addend: 0x0, symName: __ZNSt3__13minB8ue170006ImNS_6__lessIvvEEEERKT_S5_S5_T0_, symObjAddr: 0xB90, symBinAddr: 0x100002320, symSize: 0x54 }
  - { offsetInCU: 0x6A1B, offset: 0x6A1B, size: 0x8, addend: 0x0, symName: __ZNSt3__120__throw_length_errorB8ue170006EPKc, symObjAddr: 0xC6C, symBinAddr: 0x1000023FC, symSize: 0x64 }
  - { offsetInCU: 0x6A45, offset: 0x6A45, size: 0x8, addend: 0x0, symName: __ZNSt3__130__libcpp_is_constant_evaluatedB8ue170006Ev, symObjAddr: 0xE08, symBinAddr: 0x100002598, symSize: 0xC }
  - { offsetInCU: 0x6A62, offset: 0x6A62, size: 0x8, addend: 0x0, symName: __ZNSt3__117__libcpp_allocateB8ue170006Emm, symObjAddr: 0xE14, symBinAddr: 0x1000025A4, symSize: 0x28 }
  - { offsetInCU: 0x6A9F, offset: 0x6A9F, size: 0x8, addend: 0x0, symName: __ZNSt3__121__libcpp_operator_newB8ue170006IJmEEEPvDpT_, symObjAddr: 0xE3C, symBinAddr: 0x1000025CC, symSize: 0x24 }
  - { offsetInCU: 0x6AD8, offset: 0x6AD8, size: 0x8, addend: 0x0, symName: __ZNSt3__112__to_addressB8ue170006IiEEPT_S2_, symObjAddr: 0xF58, symBinAddr: 0x1000026E8, symSize: 0x14 }
  - { offsetInCU: 0x6B0D, offset: 0x6B0D, size: 0x8, addend: 0x0, symName: __ZNSt3__119__libcpp_deallocateB8ue170006EPvmm, symObjAddr: 0x141C, symBinAddr: 0x100002BAC, symSize: 0x30 }
  - { offsetInCU: 0x6B55, offset: 0x6B55, size: 0x8, addend: 0x0, symName: __ZNSt3__127__do_deallocate_handle_sizeB8ue170006IJEEEvPvmDpT_, symObjAddr: 0x144C, symBinAddr: 0x100002BDC, symSize: 0x28 }
  - { offsetInCU: 0x6B93, offset: 0x6B93, size: 0x8, addend: 0x0, symName: __ZNSt3__124__libcpp_operator_deleteB8ue170006IJPvEEEvDpT_, symObjAddr: 0x1474, symBinAddr: 0x100002C04, symSize: 0x24 }
  - { offsetInCU: 0x6BC8, offset: 0x6BC8, size: 0x8, addend: 0x0, symName: __ZNSt3__122__make_exception_guardB8ue170006INS_6vectorIdNS_9allocatorIdEEE16__destroy_vectorEEENS_28__exception_guard_exceptionsIT_EES7_, symObjAddr: 0x15EC, symBinAddr: 0x100002D7C, symSize: 0x40 }
  - { offsetInCU: 0x6BFD, offset: 0x6BFD, size: 0x8, addend: 0x0, symName: __ZNSt3__119__allocate_at_leastB8ue170006INS_9allocatorIdEEEENS_19__allocation_resultINS_16allocator_traitsIT_E7pointerEEERS5_m, symObjAddr: 0x19F4, symBinAddr: 0x100003184, symSize: 0x40 }
  - { offsetInCU: 0x6C40, offset: 0x6C40, size: 0x8, addend: 0x0, symName: __ZNSt3__112__to_addressB8ue170006IdEEPT_S2_, symObjAddr: 0x1D44, symBinAddr: 0x1000034D4, symSize: 0x14 }
  - { offsetInCU: 0x6C75, offset: 0x6C75, size: 0x8, addend: 0x0, symName: __ZNSt3__19use_facetB8ue170006INS_5ctypeIcEEEERKT_RKNS_6localeE, symObjAddr: 0x22FC, symBinAddr: 0x100003A8C, symSize: 0x2C }
  - { offsetInCU: 0x731E, offset: 0x731E, size: 0x8, addend: 0x0, symName: __ZSt28__throw_bad_array_new_lengthB8ue170006v, symObjAddr: 0xDD4, symBinAddr: 0x100002564, symSize: 0x34 }
  - { offsetInCU: 0x9A98, offset: 0x9A98, size: 0x8, addend: 0x0, symName: _main, symObjAddr: 0x0, symBinAddr: 0x100001790, symSize: 0x2E8 }
  - { offsetInCU: 0x9B7E, offset: 0x9B7E, size: 0x8, addend: 0x0, symName: __ZNSt3__16vectorIiNS_9allocatorIiEEEC1Em, symObjAddr: 0x2E8, symBinAddr: 0x100001A78, symSize: 0x34 }
  - { offsetInCU: 0x9BB8, offset: 0x9BB8, size: 0x8, addend: 0x0, symName: __ZNKSt3__16vectorIiNS_9allocatorIiEEE4sizeB8ue170006Ev, symObjAddr: 0x31C, symBinAddr: 0x100001AAC, symSize: 0x28 }
  - { offsetInCU: 0x9BDC, offset: 0x9BDC, size: 0x8, addend: 0x0, symName: __ZNSt3__16vectorIiNS_9allocatorIiEEEixB8ue170006Em, symObjAddr: 0x344, symBinAddr: 0x100001AD4, symSize: 0x24 }
  - { offsetInCU: 0x9C11, offset: 0x9C11, size: 0x8, addend: 0x0, symName: __ZNSt3__16vectorIdNS_9allocatorIdEEEC1Em, symObjAddr: 0x368, symBinAddr: 0x100001AF8, symSize: 0x34 }
  - { offsetInCU: 0x9C4B, offset: 0x9C4B, size: 0x8, addend: 0x0, symName: __ZNSt3__16vectorIdNS_9allocatorIdEEEixB8ue170006Em, symObjAddr: 0x39C, symBinAddr: 0x100001B2C, symSize: 0x24 }
  - { offsetInCU: 0x9D2E, offset: 0x9D2E, size: 0x8, addend: 0x0, symName: __ZNSt3__113basic_ostreamIcNS_11char_traitsIcEEElsB8ue170006EPFRS3_S4_E, symObjAddr: 0x3C0, symBinAddr: 0x100001B50, symSize: 0x2C }
  - { offsetInCU: 0x9D61, offset: 0x9D61, size: 0x8, addend: 0x0, symName: __ZNSt3__16vectorIdNS_9allocatorIdEEED1B8ue170006Ev, symObjAddr: 0x444, symBinAddr: 0x100001BD4, symSize: 0x2C }
  - { offsetInCU: 0x9D8A, offset: 0x9D8A, size: 0x8, addend: 0x0, symName: __ZNSt3__16vectorIiNS_9allocatorIiEEED1B8ue170006Ev, symObjAddr: 0x47C, symBinAddr: 0x100001C0C, symSize: 0x2C }
  - { offsetInCU: 0x9DB2, offset: 0x9DB2, size: 0x8, addend: 0x0, symName: __ZNSt3__16vectorIiNS_9allocatorIiEEEC2Em, symObjAddr: 0x4A8, symBinAddr: 0x100001C38, symSize: 0xDC }
  - { offsetInCU: 0x9E0C, offset: 0x9E0C, size: 0x8, addend: 0x0, symName: __ZNSt3__117__compressed_pairIPiNS_9allocatorIiEEEC1B8ue170006IDnNS_18__default_init_tagEEEOT_OT0_, symObjAddr: 0x584, symBinAddr: 0x100001D14, symSize: 0x3C }
  - { offsetInCU: 0x9E63, offset: 0x9E63, size: 0x8, addend: 0x0, symName: __ZNSt3__16vectorIiNS_9allocatorIiEEE16__destroy_vectorC1B8ue170006ERS3_, symObjAddr: 0x600, symBinAddr: 0x100001D90, symSize: 0x34 }
  - { offsetInCU: 0x9E9B, offset: 0x9E9B, size: 0x8, addend: 0x0, symName: __ZNSt3__16vectorIiNS_9allocatorIiEEE11__vallocateB8ue170006Em, symObjAddr: 0x634, symBinAddr: 0x100001DC4, symSize: 0xAC }
  - { offsetInCU: 0x9EDF, offset: 0x9EDF, size: 0x8, addend: 0x0, symName: __ZNSt3__16vectorIiNS_9allocatorIiEEE18__construct_at_endEm, symObjAddr: 0x6E0, symBinAddr: 0x100001E70, symSize: 0xD0 }
  - { offsetInCU: 0x9F53, offset: 0x9F53, size: 0x8, addend: 0x0, symName: __ZNSt3__128__exception_guard_exceptionsINS_6vectorIiNS_9allocatorIiEEE16__destroy_vectorEE10__completeB8ue170006Ev, symObjAddr: 0x7B0, symBinAddr: 0x100001F40, symSize: 0x1C }
  - { offsetInCU: 0x9F77, offset: 0x9F77, size: 0x8, addend: 0x0, symName: __ZNSt3__128__exception_guard_exceptionsINS_6vectorIiNS_9allocatorIiEEE16__destroy_vectorEED1B8ue170006Ev, symObjAddr: 0x7CC, symBinAddr: 0x100001F5C, symSize: 0x2C }
  - { offsetInCU: 0x9FA0, offset: 0x9FA0, size: 0x8, addend: 0x0, symName: __ZNSt3__117__compressed_pairIPiNS_9allocatorIiEEEC2B8ue170006IDnNS_18__default_init_tagEEEOT_OT0_, symObjAddr: 0x7F8, symBinAddr: 0x100001F88, symSize: 0x40 }
  - { offsetInCU: 0x9FF7, offset: 0x9FF7, size: 0x8, addend: 0x0, symName: __ZNSt3__122__compressed_pair_elemIPiLi0ELb0EEC2B8ue170006IDnvEEOT_, symObjAddr: 0x838, symBinAddr: 0x100001FC8, symSize: 0x1C }
  - { offsetInCU: 0xA038, offset: 0xA038, size: 0x8, addend: 0x0, symName: __ZNSt3__122__compressed_pair_elemINS_9allocatorIiEELi1ELb1EEC2B8ue170006ENS_18__default_init_tagE, symObjAddr: 0x854, symBinAddr: 0x100001FE4, symSize: 0x2C }
  - { offsetInCU: 0xA06C, offset: 0xA06C, size: 0x8, addend: 0x0, symName: __ZNSt3__19allocatorIiEC2B8ue170006Ev, symObjAddr: 0x880, symBinAddr: 0x100002010, symSize: 0x2C }
  - { offsetInCU: 0xA095, offset: 0xA095, size: 0x8, addend: 0x0, symName: __ZNSt3__116__non_trivial_ifILb1ENS_9allocatorIiEEEC2B8ue170006Ev, symObjAddr: 0x8AC, symBinAddr: 0x10000203C, symSize: 0x14 }
  - { offsetInCU: 0xA0BE, offset: 0xA0BE, size: 0x8, addend: 0x0, symName: __ZNSt3__128__exception_guard_exceptionsINS_6vectorIiNS_9allocatorIiEEE16__destroy_vectorEEC1B8ue170006ES5_, symObjAddr: 0x8C0, symBinAddr: 0x100002050, symSize: 0x34 }
  - { offsetInCU: 0xA0F5, offset: 0xA0F5, size: 0x8, addend: 0x0, symName: __ZNSt3__128__exception_guard_exceptionsINS_6vectorIiNS_9allocatorIiEEE16__destroy_vectorEEC2B8ue170006ES5_, symObjAddr: 0x8F4, symBinAddr: 0x100002084, symSize: 0x24 }
  - { offsetInCU: 0xA12C, offset: 0xA12C, size: 0x8, addend: 0x0, symName: __ZNSt3__16vectorIiNS_9allocatorIiEEE16__destroy_vectorC2B8ue170006ERS3_, symObjAddr: 0x918, symBinAddr: 0x1000020A8, symSize: 0x20 }
  - { offsetInCU: 0xA164, offset: 0xA164, size: 0x8, addend: 0x0, symName: __ZNKSt3__16vectorIiNS_9allocatorIiEEE8max_sizeEv, symObjAddr: 0x938, symBinAddr: 0x1000020C8, symSize: 0x74 }
  - { offsetInCU: 0xA18B, offset: 0xA18B, size: 0x8, addend: 0x0, symName: __ZNKSt3__16vectorIiNS_9allocatorIiEEE20__throw_length_errorB8ue170006Ev, symObjAddr: 0x9AC, symBinAddr: 0x10000213C, symSize: 0x1C }
  - { offsetInCU: 0xA1B0, offset: 0xA1B0, size: 0x8, addend: 0x0, symName: __ZNSt3__16vectorIiNS_9allocatorIiEEE7__allocB8ue170006Ev, symObjAddr: 0xA08, symBinAddr: 0x100002198, symSize: 0x28 }
  - { offsetInCU: 0xA1D5, offset: 0xA1D5, size: 0x8, addend: 0x0, symName: __ZNSt3__16vectorIiNS_9allocatorIiEEE9__end_capB8ue170006Ev, symObjAddr: 0xA30, symBinAddr: 0x1000021C0, symSize: 0x28 }
  - { offsetInCU: 0xA1FA, offset: 0xA1FA, size: 0x8, addend: 0x0, symName: __ZNKSt3__16vectorIiNS_9allocatorIiEEE14__annotate_newB8ue170006Em, symObjAddr: 0xA58, symBinAddr: 0x1000021E8, symSize: 0xAC }
  - { offsetInCU: 0xA238, offset: 0xA238, size: 0x8, addend: 0x0, symName: __ZNSt3__116allocator_traitsINS_9allocatorIiEEE8max_sizeB8ue170006IS2_vEEmRKS2_, symObjAddr: 0xB30, symBinAddr: 0x1000022C0, symSize: 0x24 }
  - { offsetInCU: 0xA266, offset: 0xA266, size: 0x8, addend: 0x0, symName: __ZNKSt3__16vectorIiNS_9allocatorIiEEE7__allocB8ue170006Ev, symObjAddr: 0xB54, symBinAddr: 0x1000022E4, symSize: 0x28 }
  - { offsetInCU: 0xA28B, offset: 0xA28B, size: 0x8, addend: 0x0, symName: __ZNSt3__114numeric_limitsIlE3maxB8ue170006Ev, symObjAddr: 0xB7C, symBinAddr: 0x10000230C, symSize: 0x14 }
  - { offsetInCU: 0xA2B3, offset: 0xA2B3, size: 0x8, addend: 0x0, symName: __ZNKSt3__16__lessIvvEclB8ue170006ImmEEbRKT_RKT0_, symObjAddr: 0xBE4, symBinAddr: 0x100002374, symSize: 0x34 }
  - { offsetInCU: 0xA305, offset: 0xA305, size: 0x8, addend: 0x0, symName: __ZNKSt3__19allocatorIiE8max_sizeB8ue170006Ev, symObjAddr: 0xC18, symBinAddr: 0x1000023A8, symSize: 0x14 }
  - { offsetInCU: 0xA329, offset: 0xA329, size: 0x8, addend: 0x0, symName: __ZNKSt3__117__compressed_pairIPiNS_9allocatorIiEEE6secondB8ue170006Ev, symObjAddr: 0xC2C, symBinAddr: 0x1000023BC, symSize: 0x24 }
  - { offsetInCU: 0xA34E, offset: 0xA34E, size: 0x8, addend: 0x0, symName: __ZNKSt3__122__compressed_pair_elemINS_9allocatorIiEELi1ELb1EE5__getB8ue170006Ev, symObjAddr: 0xC50, symBinAddr: 0x1000023E0, symSize: 0x14 }
  - { offsetInCU: 0xA372, offset: 0xA372, size: 0x8, addend: 0x0, symName: __ZNSt3__123__libcpp_numeric_limitsIlLb1EE3maxB8ue170006Ev, symObjAddr: 0xC64, symBinAddr: 0x1000023F4, symSize: 0x8 }
  - { offsetInCU: 0xA386, offset: 0xA386, size: 0x8, addend: 0x0, symName: __ZNSt12length_errorC1B8ue170006EPKc, symObjAddr: 0xCD0, symBinAddr: 0x100002460, symSize: 0x34 }
  - { offsetInCU: 0xA3BD, offset: 0xA3BD, size: 0x8, addend: 0x0, symName: __ZNSt12length_errorC2B8ue170006EPKc, symObjAddr: 0xD04, symBinAddr: 0x100002494, symSize: 0x4C }
  - { offsetInCU: 0xA3F4, offset: 0xA3F4, size: 0x8, addend: 0x0, symName: __ZNSt3__19allocatorIiE8allocateB8ue170006Em, symObjAddr: 0xD50, symBinAddr: 0x1000024E0, symSize: 0x84 }
  - { offsetInCU: 0xA427, offset: 0xA427, size: 0x8, addend: 0x0, symName: __ZNSt3__117__compressed_pairIPiNS_9allocatorIiEEE6secondB8ue170006Ev, symObjAddr: 0xE60, symBinAddr: 0x1000025F0, symSize: 0x24 }
  - { offsetInCU: 0xA44C, offset: 0xA44C, size: 0x8, addend: 0x0, symName: __ZNSt3__122__compressed_pair_elemINS_9allocatorIiEELi1ELb1EE5__getB8ue170006Ev, symObjAddr: 0xE84, symBinAddr: 0x100002614, symSize: 0x14 }
  - { offsetInCU: 0xA470, offset: 0xA470, size: 0x8, addend: 0x0, symName: __ZNSt3__117__compressed_pairIPiNS_9allocatorIiEEE5firstB8ue170006Ev, symObjAddr: 0xE98, symBinAddr: 0x100002628, symSize: 0x24 }
  - { offsetInCU: 0xA495, offset: 0xA495, size: 0x8, addend: 0x0, symName: __ZNSt3__122__compressed_pair_elemIPiLi0ELb0EE5__getB8ue170006Ev, symObjAddr: 0xEBC, symBinAddr: 0x10000264C, symSize: 0x14 }
  - { offsetInCU: 0xA4B9, offset: 0xA4B9, size: 0x8, addend: 0x0, symName: __ZNKSt3__16vectorIiNS_9allocatorIiEEE31__annotate_contiguous_containerB8ue170006EPKvS5_S5_S5_, symObjAddr: 0xED0, symBinAddr: 0x100002660, symSize: 0x20 }
  - { offsetInCU: 0xA50D, offset: 0xA50D, size: 0x8, addend: 0x0, symName: __ZNKSt3__16vectorIiNS_9allocatorIiEEE4dataB8ue170006Ev, symObjAddr: 0xEF0, symBinAddr: 0x100002680, symSize: 0x28 }
  - { offsetInCU: 0xA532, offset: 0xA532, size: 0x8, addend: 0x0, symName: __ZNKSt3__16vectorIiNS_9allocatorIiEEE8capacityB8ue170006Ev, symObjAddr: 0xF18, symBinAddr: 0x1000026A8, symSize: 0x40 }
  - { offsetInCU: 0xA557, offset: 0xA557, size: 0x8, addend: 0x0, symName: __ZNKSt3__16vectorIiNS_9allocatorIiEEE9__end_capB8ue170006Ev, symObjAddr: 0xF6C, symBinAddr: 0x1000026FC, symSize: 0x28 }
  - { offsetInCU: 0xA57C, offset: 0xA57C, size: 0x8, addend: 0x0, symName: __ZNKSt3__117__compressed_pairIPiNS_9allocatorIiEEE5firstB8ue170006Ev, symObjAddr: 0xF94, symBinAddr: 0x100002724, symSize: 0x24 }
  - { offsetInCU: 0xA5A1, offset: 0xA5A1, size: 0x8, addend: 0x0, symName: __ZNKSt3__122__compressed_pair_elemIPiLi0ELb0EE5__getB8ue170006Ev, symObjAddr: 0xFB8, symBinAddr: 0x100002748, symSize: 0x14 }
  - { offsetInCU: 0xA5DE, offset: 0xA5DE, size: 0x8, addend: 0x0, symName: __ZNSt3__16vectorIiNS_9allocatorIiEEE21_ConstructTransactionC1B8ue170006ERS3_m, symObjAddr: 0xFCC, symBinAddr: 0x10000275C, symSize: 0x3C }
  - { offsetInCU: 0xA625, offset: 0xA625, size: 0x8, addend: 0x0, symName: __ZNSt3__116allocator_traitsINS_9allocatorIiEEE9constructB8ue170006IiJEvEEvRS2_PT_DpOT0_, symObjAddr: 0x1008, symBinAddr: 0x100002798, symSize: 0x2C }
  - { offsetInCU: 0xA667, offset: 0xA667, size: 0x8, addend: 0x0, symName: __ZNSt3__16vectorIiNS_9allocatorIiEEE21_ConstructTransactionD1B8ue170006Ev, symObjAddr: 0x1034, symBinAddr: 0x1000027C4, symSize: 0x2C }
  - { offsetInCU: 0xA690, offset: 0xA690, size: 0x8, addend: 0x0, symName: __ZNSt3__16vectorIiNS_9allocatorIiEEE21_ConstructTransactionC2B8ue170006ERS3_m, symObjAddr: 0x1060, symBinAddr: 0x1000027F0, symSize: 0x44 }
  - { offsetInCU: 0xA6D7, offset: 0xA6D7, size: 0x8, addend: 0x0, symName: __ZNSt3__19allocatorIiE9constructB8ue170006IiJEEEvPT_DpOT0_, symObjAddr: 0x10A4, symBinAddr: 0x100002834, symSize: 0x1C }
  - { offsetInCU: 0xA717, offset: 0xA717, size: 0x8, addend: 0x0, symName: __ZNSt3__16vectorIiNS_9allocatorIiEEE21_ConstructTransactionD2B8ue170006Ev, symObjAddr: 0x10C0, symBinAddr: 0x100002850, symSize: 0x20 }
  - { offsetInCU: 0xA740, offset: 0xA740, size: 0x8, addend: 0x0, symName: __ZNSt3__128__exception_guard_exceptionsINS_6vectorIiNS_9allocatorIiEEE16__destroy_vectorEED2B8ue170006Ev, symObjAddr: 0x10E0, symBinAddr: 0x100002870, symSize: 0x48 }
  - { offsetInCU: 0xA769, offset: 0xA769, size: 0x8, addend: 0x0, symName: __ZNSt3__16vectorIiNS_9allocatorIiEEE16__destroy_vectorclB8ue170006Ev, symObjAddr: 0x1128, symBinAddr: 0x1000028B8, symSize: 0x90 }
  - { offsetInCU: 0xA78E, offset: 0xA78E, size: 0x8, addend: 0x0, symName: __ZNSt3__16vectorIiNS_9allocatorIiEEE7__clearB8ue170006Ev, symObjAddr: 0x11B8, symBinAddr: 0x100002948, symSize: 0x28 }
  - { offsetInCU: 0xA7B3, offset: 0xA7B3, size: 0x8, addend: 0x0, symName: __ZNKSt3__16vectorIiNS_9allocatorIiEEE17__annotate_deleteB8ue170006Ev, symObjAddr: 0x11E0, symBinAddr: 0x100002970, symSize: 0xB8 }
  - { offsetInCU: 0xA7D8, offset: 0xA7D8, size: 0x8, addend: 0x0, symName: __ZNSt3__116allocator_traitsINS_9allocatorIiEEE10deallocateB8ue170006ERS2_Pim, symObjAddr: 0x1298, symBinAddr: 0x100002A28, symSize: 0x34 }
  - { offsetInCU: 0xA81A, offset: 0xA81A, size: 0x8, addend: 0x0, symName: __ZNSt3__16vectorIiNS_9allocatorIiEEE22__base_destruct_at_endB8ue170006EPi, symObjAddr: 0x12CC, symBinAddr: 0x100002A5C, symSize: 0xA0 }
  - { offsetInCU: 0xA85E, offset: 0xA85E, size: 0x8, addend: 0x0, symName: __ZNSt3__116allocator_traitsINS_9allocatorIiEEE7destroyB8ue170006IivEEvRS2_PT_, symObjAddr: 0x136C, symBinAddr: 0x100002AFC, symSize: 0x2C }
  - { offsetInCU: 0xA89B, offset: 0xA89B, size: 0x8, addend: 0x0, symName: __ZNSt3__19allocatorIiE7destroyB8ue170006EPi, symObjAddr: 0x1398, symBinAddr: 0x100002B28, symSize: 0x14 }
  - { offsetInCU: 0xA8CD, offset: 0xA8CD, size: 0x8, addend: 0x0, symName: __ZNSt3__19allocatorIiE10deallocateB8ue170006EPim, symObjAddr: 0x13AC, symBinAddr: 0x100002B3C, symSize: 0x70 }
  - { offsetInCU: 0xA90E, offset: 0xA90E, size: 0x8, addend: 0x0, symName: __ZNSt3__16vectorIiNS_9allocatorIiEEED2B8ue170006Ev, symObjAddr: 0x1498, symBinAddr: 0x100002C28, symSize: 0x3C }
  - { offsetInCU: 0xA936, offset: 0xA936, size: 0x8, addend: 0x0, symName: __ZNSt3__16vectorIdNS_9allocatorIdEEEC2Em, symObjAddr: 0x14D4, symBinAddr: 0x100002C64, symSize: 0xDC }
  - { offsetInCU: 0xA986, offset: 0xA986, size: 0x8, addend: 0x0, symName: __ZNSt3__117__compressed_pairIPdNS_9allocatorIdEEEC1B8ue170006IDnNS_18__default_init_tagEEEOT_OT0_, symObjAddr: 0x15B0, symBinAddr: 0x100002D40, symSize: 0x3C }
  - { offsetInCU: 0xA9DD, offset: 0xA9DD, size: 0x8, addend: 0x0, symName: __ZNSt3__16vectorIdNS_9allocatorIdEEE16__destroy_vectorC1B8ue170006ERS3_, symObjAddr: 0x162C, symBinAddr: 0x100002DBC, symSize: 0x34 }
  - { offsetInCU: 0xAA15, offset: 0xAA15, size: 0x8, addend: 0x0, symName: __ZNSt3__16vectorIdNS_9allocatorIdEEE11__vallocateB8ue170006Em, symObjAddr: 0x1660, symBinAddr: 0x100002DF0, symSize: 0xAC }
  - { offsetInCU: 0xAA59, offset: 0xAA59, size: 0x8, addend: 0x0, symName: __ZNSt3__16vectorIdNS_9allocatorIdEEE18__construct_at_endEm, symObjAddr: 0x170C, symBinAddr: 0x100002E9C, symSize: 0xD0 }
  - { offsetInCU: 0xAACD, offset: 0xAACD, size: 0x8, addend: 0x0, symName: __ZNSt3__128__exception_guard_exceptionsINS_6vectorIdNS_9allocatorIdEEE16__destroy_vectorEE10__completeB8ue170006Ev, symObjAddr: 0x17DC, symBinAddr: 0x100002F6C, symSize: 0x1C }
  - { offsetInCU: 0xAAF1, offset: 0xAAF1, size: 0x8, addend: 0x0, symName: __ZNSt3__128__exception_guard_exceptionsINS_6vectorIdNS_9allocatorIdEEE16__destroy_vectorEED1B8ue170006Ev, symObjAddr: 0x17F8, symBinAddr: 0x100002F88, symSize: 0x2C }
  - { offsetInCU: 0xAB1A, offset: 0xAB1A, size: 0x8, addend: 0x0, symName: __ZNSt3__117__compressed_pairIPdNS_9allocatorIdEEEC2B8ue170006IDnNS_18__default_init_tagEEEOT_OT0_, symObjAddr: 0x1824, symBinAddr: 0x100002FB4, symSize: 0x40 }
  - { offsetInCU: 0xAB71, offset: 0xAB71, size: 0x8, addend: 0x0, symName: __ZNSt3__122__compressed_pair_elemIPdLi0ELb0EEC2B8ue170006IDnvEEOT_, symObjAddr: 0x1864, symBinAddr: 0x100002FF4, symSize: 0x1C }
  - { offsetInCU: 0xABB2, offset: 0xABB2, size: 0x8, addend: 0x0, symName: __ZNSt3__122__compressed_pair_elemINS_9allocatorIdEELi1ELb1EEC2B8ue170006ENS_18__default_init_tagE, symObjAddr: 0x1880, symBinAddr: 0x100003010, symSize: 0x2C }
  - { offsetInCU: 0xABE6, offset: 0xABE6, size: 0x8, addend: 0x0, symName: __ZNSt3__19allocatorIdEC2B8ue170006Ev, symObjAddr: 0x18AC, symBinAddr: 0x10000303C, symSize: 0x2C }
  - { offsetInCU: 0xAC0F, offset: 0xAC0F, size: 0x8, addend: 0x0, symName: __ZNSt3__116__non_trivial_ifILb1ENS_9allocatorIdEEEC2B8ue170006Ev, symObjAddr: 0x18D8, symBinAddr: 0x100003068, symSize: 0x14 }
  - { offsetInCU: 0xAC38, offset: 0xAC38, size: 0x8, addend: 0x0, symName: __ZNSt3__128__exception_guard_exceptionsINS_6vectorIdNS_9allocatorIdEEE16__destroy_vectorEEC1B8ue170006ES5_, symObjAddr: 0x18EC, symBinAddr: 0x10000307C, symSize: 0x34 }
  - { offsetInCU: 0xAC6F, offset: 0xAC6F, size: 0x8, addend: 0x0, symName: __ZNSt3__128__exception_guard_exceptionsINS_6vectorIdNS_9allocatorIdEEE16__destroy_vectorEEC2B8ue170006ES5_, symObjAddr: 0x1920, symBinAddr: 0x1000030B0, symSize: 0x24 }
  - { offsetInCU: 0xACA6, offset: 0xACA6, size: 0x8, addend: 0x0, symName: __ZNSt3__16vectorIdNS_9allocatorIdEEE16__destroy_vectorC2B8ue170006ERS3_, symObjAddr: 0x1944, symBinAddr: 0x1000030D4, symSize: 0x20 }
  - { offsetInCU: 0xACDE, offset: 0xACDE, size: 0x8, addend: 0x0, symName: __ZNKSt3__16vectorIdNS_9allocatorIdEEE8max_sizeEv, symObjAddr: 0x1964, symBinAddr: 0x1000030F4, symSize: 0x74 }
  - { offsetInCU: 0xAD05, offset: 0xAD05, size: 0x8, addend: 0x0, symName: __ZNKSt3__16vectorIdNS_9allocatorIdEEE20__throw_length_errorB8ue170006Ev, symObjAddr: 0x19D8, symBinAddr: 0x100003168, symSize: 0x1C }
  - { offsetInCU: 0xAD2A, offset: 0xAD2A, size: 0x8, addend: 0x0, symName: __ZNSt3__16vectorIdNS_9allocatorIdEEE7__allocB8ue170006Ev, symObjAddr: 0x1A34, symBinAddr: 0x1000031C4, symSize: 0x28 }
  - { offsetInCU: 0xAD4F, offset: 0xAD4F, size: 0x8, addend: 0x0, symName: __ZNSt3__16vectorIdNS_9allocatorIdEEE9__end_capB8ue170006Ev, symObjAddr: 0x1A5C, symBinAddr: 0x1000031EC, symSize: 0x28 }
  - { offsetInCU: 0xAD74, offset: 0xAD74, size: 0x8, addend: 0x0, symName: __ZNKSt3__16vectorIdNS_9allocatorIdEEE14__annotate_newB8ue170006Em, symObjAddr: 0x1A84, symBinAddr: 0x100003214, symSize: 0xAC }
  - { offsetInCU: 0xADB2, offset: 0xADB2, size: 0x8, addend: 0x0, symName: __ZNSt3__116allocator_traitsINS_9allocatorIdEEE8max_sizeB8ue170006IS2_vEEmRKS2_, symObjAddr: 0x1B30, symBinAddr: 0x1000032C0, symSize: 0x24 }
  - { offsetInCU: 0xADE0, offset: 0xADE0, size: 0x8, addend: 0x0, symName: __ZNKSt3__16vectorIdNS_9allocatorIdEEE7__allocB8ue170006Ev, symObjAddr: 0x1B54, symBinAddr: 0x1000032E4, symSize: 0x28 }
  - { offsetInCU: 0xAE05, offset: 0xAE05, size: 0x8, addend: 0x0, symName: __ZNKSt3__19allocatorIdE8max_sizeB8ue170006Ev, symObjAddr: 0x1B7C, symBinAddr: 0x10000330C, symSize: 0x14 }
  - { offsetInCU: 0xAE29, offset: 0xAE29, size: 0x8, addend: 0x0, symName: __ZNKSt3__117__compressed_pairIPdNS_9allocatorIdEEE6secondB8ue170006Ev, symObjAddr: 0x1B90, symBinAddr: 0x100003320, symSize: 0x24 }
  - { offsetInCU: 0xAE4E, offset: 0xAE4E, size: 0x8, addend: 0x0, symName: __ZNKSt3__122__compressed_pair_elemINS_9allocatorIdEELi1ELb1EE5__getB8ue170006Ev, symObjAddr: 0x1BB4, symBinAddr: 0x100003344, symSize: 0x14 }
  - { offsetInCU: 0xAE72, offset: 0xAE72, size: 0x8, addend: 0x0, symName: __ZNSt3__19allocatorIdE8allocateB8ue170006Em, symObjAddr: 0x1BC8, symBinAddr: 0x100003358, symSize: 0x84 }
  - { offsetInCU: 0xAEA5, offset: 0xAEA5, size: 0x8, addend: 0x0, symName: __ZNSt3__117__compressed_pairIPdNS_9allocatorIdEEE6secondB8ue170006Ev, symObjAddr: 0x1C4C, symBinAddr: 0x1000033DC, symSize: 0x24 }
  - { offsetInCU: 0xAECA, offset: 0xAECA, size: 0x8, addend: 0x0, symName: __ZNSt3__122__compressed_pair_elemINS_9allocatorIdEELi1ELb1EE5__getB8ue170006Ev, symObjAddr: 0x1C70, symBinAddr: 0x100003400, symSize: 0x14 }
  - { offsetInCU: 0xAEEE, offset: 0xAEEE, size: 0x8, addend: 0x0, symName: __ZNSt3__117__compressed_pairIPdNS_9allocatorIdEEE5firstB8ue170006Ev, symObjAddr: 0x1C84, symBinAddr: 0x100003414, symSize: 0x24 }
  - { offsetInCU: 0xAF13, offset: 0xAF13, size: 0x8, addend: 0x0, symName: __ZNSt3__122__compressed_pair_elemIPdLi0ELb0EE5__getB8ue170006Ev, symObjAddr: 0x1CA8, symBinAddr: 0x100003438, symSize: 0x14 }
  - { offsetInCU: 0xAF37, offset: 0xAF37, size: 0x8, addend: 0x0, symName: __ZNKSt3__16vectorIdNS_9allocatorIdEEE31__annotate_contiguous_containerB8ue170006EPKvS5_S5_S5_, symObjAddr: 0x1CBC, symBinAddr: 0x10000344C, symSize: 0x20 }
  - { offsetInCU: 0xAF8B, offset: 0xAF8B, size: 0x8, addend: 0x0, symName: __ZNKSt3__16vectorIdNS_9allocatorIdEEE4dataB8ue170006Ev, symObjAddr: 0x1CDC, symBinAddr: 0x10000346C, symSize: 0x28 }
  - { offsetInCU: 0xAFB0, offset: 0xAFB0, size: 0x8, addend: 0x0, symName: __ZNKSt3__16vectorIdNS_9allocatorIdEEE8capacityB8ue170006Ev, symObjAddr: 0x1D04, symBinAddr: 0x100003494, symSize: 0x40 }
  - { offsetInCU: 0xAFD5, offset: 0xAFD5, size: 0x8, addend: 0x0, symName: __ZNKSt3__16vectorIdNS_9allocatorIdEEE9__end_capB8ue170006Ev, symObjAddr: 0x1D58, symBinAddr: 0x1000034E8, symSize: 0x28 }
  - { offsetInCU: 0xAFFA, offset: 0xAFFA, size: 0x8, addend: 0x0, symName: __ZNKSt3__117__compressed_pairIPdNS_9allocatorIdEEE5firstB8ue170006Ev, symObjAddr: 0x1D80, symBinAddr: 0x100003510, symSize: 0x24 }
  - { offsetInCU: 0xB01F, offset: 0xB01F, size: 0x8, addend: 0x0, symName: __ZNKSt3__122__compressed_pair_elemIPdLi0ELb0EE5__getB8ue170006Ev, symObjAddr: 0x1DA4, symBinAddr: 0x100003534, symSize: 0x14 }
  - { offsetInCU: 0xB05C, offset: 0xB05C, size: 0x8, addend: 0x0, symName: __ZNSt3__16vectorIdNS_9allocatorIdEEE21_ConstructTransactionC1B8ue170006ERS3_m, symObjAddr: 0x1DB8, symBinAddr: 0x100003548, symSize: 0x3C }
  - { offsetInCU: 0xB0A3, offset: 0xB0A3, size: 0x8, addend: 0x0, symName: __ZNSt3__116allocator_traitsINS_9allocatorIdEEE9constructB8ue170006IdJEvEEvRS2_PT_DpOT0_, symObjAddr: 0x1DF4, symBinAddr: 0x100003584, symSize: 0x2C }
  - { offsetInCU: 0xB0E5, offset: 0xB0E5, size: 0x8, addend: 0x0, symName: __ZNSt3__16vectorIdNS_9allocatorIdEEE21_ConstructTransactionD1B8ue170006Ev, symObjAddr: 0x1E20, symBinAddr: 0x1000035B0, symSize: 0x2C }
  - { offsetInCU: 0xB10E, offset: 0xB10E, size: 0x8, addend: 0x0, symName: __ZNSt3__16vectorIdNS_9allocatorIdEEE21_ConstructTransactionC2B8ue170006ERS3_m, symObjAddr: 0x1E4C, symBinAddr: 0x1000035DC, symSize: 0x44 }
  - { offsetInCU: 0xB155, offset: 0xB155, size: 0x8, addend: 0x0, symName: __ZNSt3__19allocatorIdE9constructB8ue170006IdJEEEvPT_DpOT0_, symObjAddr: 0x1E90, symBinAddr: 0x100003620, symSize: 0x20 }
  - { offsetInCU: 0xB195, offset: 0xB195, size: 0x8, addend: 0x0, symName: __ZNSt3__16vectorIdNS_9allocatorIdEEE21_ConstructTransactionD2B8ue170006Ev, symObjAddr: 0x1EB0, symBinAddr: 0x100003640, symSize: 0x20 }
  - { offsetInCU: 0xB1BE, offset: 0xB1BE, size: 0x8, addend: 0x0, symName: __ZNSt3__128__exception_guard_exceptionsINS_6vectorIdNS_9allocatorIdEEE16__destroy_vectorEED2B8ue170006Ev, symObjAddr: 0x1ED0, symBinAddr: 0x100003660, symSize: 0x48 }
  - { offsetInCU: 0xB1E7, offset: 0xB1E7, size: 0x8, addend: 0x0, symName: __ZNSt3__16vectorIdNS_9allocatorIdEEE16__destroy_vectorclB8ue170006Ev, symObjAddr: 0x1F18, symBinAddr: 0x1000036A8, symSize: 0x90 }
  - { offsetInCU: 0xB20C, offset: 0xB20C, size: 0x8, addend: 0x0, symName: __ZNSt3__16vectorIdNS_9allocatorIdEEE7__clearB8ue170006Ev, symObjAddr: 0x1FA8, symBinAddr: 0x100003738, symSize: 0x28 }
  - { offsetInCU: 0xB231, offset: 0xB231, size: 0x8, addend: 0x0, symName: __ZNKSt3__16vectorIdNS_9allocatorIdEEE17__annotate_deleteB8ue170006Ev, symObjAddr: 0x1FD0, symBinAddr: 0x100003760, symSize: 0xB8 }
  - { offsetInCU: 0xB256, offset: 0xB256, size: 0x8, addend: 0x0, symName: __ZNSt3__116allocator_traitsINS_9allocatorIdEEE10deallocateB8ue170006ERS2_Pdm, symObjAddr: 0x2088, symBinAddr: 0x100003818, symSize: 0x34 }
  - { offsetInCU: 0xB298, offset: 0xB298, size: 0x8, addend: 0x0, symName: __ZNSt3__16vectorIdNS_9allocatorIdEEE22__base_destruct_at_endB8ue170006EPd, symObjAddr: 0x20BC, symBinAddr: 0x10000384C, symSize: 0xA0 }
  - { offsetInCU: 0xB2DC, offset: 0xB2DC, size: 0x8, addend: 0x0, symName: __ZNSt3__116allocator_traitsINS_9allocatorIdEEE7destroyB8ue170006IdvEEvRS2_PT_, symObjAddr: 0x215C, symBinAddr: 0x1000038EC, symSize: 0x2C }
  - { offsetInCU: 0xB319, offset: 0xB319, size: 0x8, addend: 0x0, symName: __ZNSt3__19allocatorIdE7destroyB8ue170006EPd, symObjAddr: 0x2188, symBinAddr: 0x100003918, symSize: 0x14 }
  - { offsetInCU: 0xB34B, offset: 0xB34B, size: 0x8, addend: 0x0, symName: __ZNKSt3__16vectorIdNS_9allocatorIdEEE4sizeB8ue170006Ev, symObjAddr: 0x219C, symBinAddr: 0x10000392C, symSize: 0x28 }
  - { offsetInCU: 0xB36F, offset: 0xB36F, size: 0x8, addend: 0x0, symName: __ZNSt3__19allocatorIdE10deallocateB8ue170006EPdm, symObjAddr: 0x21C4, symBinAddr: 0x100003954, symSize: 0x70 }
  - { offsetInCU: 0xB3B0, offset: 0xB3B0, size: 0x8, addend: 0x0, symName: __ZNSt3__16vectorIdNS_9allocatorIdEEED2B8ue170006Ev, symObjAddr: 0x2234, symBinAddr: 0x1000039C4, symSize: 0x3C }
  - { offsetInCU: 0xB3D9, offset: 0xB3D9, size: 0x8, addend: 0x0, symName: __ZNKSt3__19basic_iosIcNS_11char_traitsIcEEE5widenB8ue170006Ec, symObjAddr: 0x2270, symBinAddr: 0x100003A00, symSize: 0x8C }
  - { offsetInCU: 0xB446, offset: 0xB446, size: 0x8, addend: 0x0, symName: __ZNKSt3__15ctypeIcE5widenB8ue170006Ec, symObjAddr: 0x2328, symBinAddr: 0x100003AB8, symSize: 0x38 }
...
